target datalayout = "e-m:e-p270:32:32-p271:32:32-p272:64:64-i64:64-i128:128-f80:128-n8:16:32:64-S128"
target triple = "x86_64-pc-linux-gnu"

%struct.AVCodecContext = type { ptr, i32, i32, ptr, i32, i32, ptr, ptr, ptr, i64, i32, i32, ptr, i32, %struct.AVRational, %struct.AVRational, %struct.AVRational, i32, i32, i32, i32, i32, %struct.AVRational, i32, i32, i32, i32, i32, i32, i32, i32, i32, i32, i32, ptr, ptr, i32, float, float, float, float, float, float, float, float, float, i32, i32, i32, i32, i32, i32, i32, i32, i32, i32, i32, i32, ptr, ptr, ptr, i32, i32, i32, i32, i32, i32, i32, i32, i32, i32, %struct.AVChannelLayout, i32, i32, i32, i32, i32, i32, i32, i32, ptr, i32, i32, i32, float, float, i32, i32, i32, i32, i32, ptr, i64, i64, float, float, i32, i32, ptr, ptr, i32, i32, i32, i32, i32, ptr, ptr, ptr, ptr, i32, i32, [8 x i64], i32, i32, i32, i32, i32, i32, i32, ptr, ptr, i32, i32, i32, i32, i32, i32, i32, i32, i32, i32, ptr, ptr, i32, i32, ptr, ptr, ptr, ptr, i32, i32, i64, i32, i32, i64, ptr, i64, ptr, i32, ptr, i32 }
%struct.AVRational = type { i32, i32 }
%struct.AVChannelLayout = type { i32, i32, %union.anon.0, ptr }
%union.anon.0 = type { i64 }
%struct.DxaDecContext = type { ptr, i32, ptr, [256 x i32] }

@.str.2 = private unnamed_addr constant [35 x i8] c"dimensions are not a multiple of 4\00", align 1
@.str.3 = private unnamed_addr constant [38 x i8] c"Can't allocate decompression buffer.\0A\00", align 1

; Function Attrs: cold nounwind optsize uwtable
define internal i32 @decode_init(ptr noundef %0) #0 {
  %2 = alloca i32, align 4
  %3 = alloca ptr, align 8
  %4 = alloca ptr, align 8
  %5 = alloca i32, align 4
  store ptr %0, ptr %3, align 8, !tbaa !4
  call void @llvm.lifetime.start.p0(i64 8, ptr %4) #9
  %6 = load ptr, ptr %3, align 8, !tbaa !4
  %7 = getelementptr inbounds nuw %struct.AVCodecContext, ptr %6, i32 0, i32 6
  %8 = load ptr, ptr %7, align 8, !tbaa !9
  store ptr %8, ptr %4, align 8, !tbaa !29
  %9 = load ptr, ptr %3, align 8, !tbaa !4
  %10 = getelementptr inbounds nuw %struct.AVCodecContext, ptr %9, i32 0, i32 18
  %11 = load i32, ptr %10, align 8, !tbaa !31
  %12 = srem i32 %11, 4
  %13 = icmp ne i32 %12, 0
  br i1 %13, label %20, label %14

14:                                               ; preds = %1
  %15 = load ptr, ptr %3, align 8, !tbaa !4
  %16 = getelementptr inbounds nuw %struct.AVCodecContext, ptr %15, i32 0, i32 19
  %17 = load i32, ptr %16, align 4, !tbaa !32
  %18 = srem i32 %17, 4
  %19 = icmp ne i32 %18, 0
  br i1 %19, label %20, label %22

20:                                               ; preds = %14, %1
  %21 = load ptr, ptr %3, align 8, !tbaa !4
  call void (ptr, ptr, ...) @avpriv_request_sample(ptr noundef %21, ptr noundef @.str.2)
  store i32 -1094995529, ptr %2, align 4
  store i32 1, ptr %5, align 4
  br label %59

22:                                               ; preds = %14
  %23 = call ptr @av_frame_alloc()
  %24 = load ptr, ptr %4, align 8, !tbaa !29
  %25 = getelementptr inbounds nuw %struct.DxaDecContext, ptr %24, i32 0, i32 0
  store ptr %23, ptr %25, align 8, !tbaa !33
  %26 = load ptr, ptr %4, align 8, !tbaa !29
  %27 = getelementptr inbounds nuw %struct.DxaDecContext, ptr %26, i32 0, i32 0
  %28 = load ptr, ptr %27, align 8, !tbaa !33
  %29 = icmp ne ptr %28, null
  br i1 %29, label %31, label %30

30:                                               ; preds = %22
  store i32 -12, ptr %2, align 4
  store i32 1, ptr %5, align 4
  br label %59

31:                                               ; preds = %22
  %32 = load ptr, ptr %3, align 8, !tbaa !4
  %33 = getelementptr inbounds nuw %struct.AVCodecContext, ptr %32, i32 0, i32 23
  store i32 11, ptr %33, align 8, !tbaa !36
  %34 = load ptr, ptr %3, align 8, !tbaa !4
  %35 = getelementptr inbounds nuw %struct.AVCodecContext, ptr %34, i32 0, i32 18
  %36 = load i32, ptr %35, align 8, !tbaa !31
  %37 = load ptr, ptr %3, align 8, !tbaa !4
  %38 = getelementptr inbounds nuw %struct.AVCodecContext, ptr %37, i32 0, i32 19
  %39 = load i32, ptr %38, align 4, !tbaa !32
  %40 = mul nsw i32 %36, %39
  %41 = mul nsw i32 %40, 2
  %42 = load ptr, ptr %4, align 8, !tbaa !29
  %43 = getelementptr inbounds nuw %struct.DxaDecContext, ptr %42, i32 0, i32 1
  store i32 %41, ptr %43, align 8, !tbaa !37
  %44 = load ptr, ptr %4, align 8, !tbaa !29
  %45 = getelementptr inbounds nuw %struct.DxaDecContext, ptr %44, i32 0, i32 1
  %46 = load i32, ptr %45, align 8, !tbaa !37
  %47 = add nsw i32 %46, 16
  %48 = sext i32 %47 to i64
  %49 = call noalias ptr @av_malloc(i64 noundef %48)
  %50 = load ptr, ptr %4, align 8, !tbaa !29
  %51 = getelementptr inbounds nuw %struct.DxaDecContext, ptr %50, i32 0, i32 2
  store ptr %49, ptr %51, align 8, !tbaa !38
  %52 = load ptr, ptr %4, align 8, !tbaa !29
  %53 = getelementptr inbounds nuw %struct.DxaDecContext, ptr %52, i32 0, i32 2
  %54 = load ptr, ptr %53, align 8, !tbaa !38
  %55 = icmp ne ptr %54, null
  br i1 %55, label %58, label %56

56:                                               ; preds = %31
  %57 = load ptr, ptr %3, align 8, !tbaa !4
  call void (ptr, i32, ptr, ...) @av_log(ptr noundef %57, i32 noundef 16, ptr noundef @.str.3)
  store i32 -12, ptr %2, align 4
  store i32 1, ptr %5, align 4
  br label %59

58:                                               ; preds = %31
  store i32 0, ptr %2, align 4
  store i32 1, ptr %5, align 4
  br label %59

59:                                               ; preds = %58, %56, %30, %20
  call void @llvm.lifetime.end.p0(i64 8, ptr %4) #9
  %60 = load i32, ptr %2, align 4
  ret i32 %60
}