; Function Attrs: cold nounwind optsize uwtable
define internal range(i32 -1094995529, 1) i32 @decode_init(ptr noundef %0) #0 {
  %2 = getelementptr inbounds nuw i8, ptr %0, i64 32
  %3 = load ptr, ptr %2, align 8, !tbaa !4
  %4 = getelementptr inbounds nuw i8, ptr %0, i64 112
  %5 = load i32, ptr %4, align 8, !tbaa !27
  %6 = and i32 %5, 3
  %.not = icmp eq i32 %6, 0
  br i1 %.not, label %7, label %11

7:                                                ; preds = %1
  %8 = getelementptr inbounds nuw i8, ptr %0, i64 116
  %9 = load i32, ptr %8, align 4, !tbaa !28
  %10 = and i32 %9, 3
  %.not14 = icmp eq i32 %10, 0
  br i1 %.not14, label %12, label %11

11:                                               ; preds = %7, %1
  tail call void (ptr, ptr, ...) @avpriv_request_sample(ptr noundef nonnull %0, ptr noundef nonnull @.str.2) #8
  br label %26

12:                                               ; preds = %7
  %13 = tail call ptr @av_frame_alloc() #8
  store ptr %13, ptr %3, align 8, !tbaa !29
  %.not15 = icmp eq ptr %13, null
  br i1 %.not15, label %26, label %14

14:                                               ; preds = %12
  %15 = getelementptr inbounds nuw i8, ptr %0, i64 136
  store i32 11, ptr %15, align 8, !tbaa !32
  %16 = load i32, ptr %4, align 8, !tbaa !27
  %17 = load i32, ptr %8, align 4, !tbaa !28
  %18 = shl i32 %16, 1
  %19 = mul i32 %18, %17
  %20 = getelementptr inbounds nuw i8, ptr %3, i64 8
  store i32 %19, ptr %20, align 8, !tbaa !33
  %21 = add nsw i32 %19, 16
  %22 = sext i32 %21 to i64
  %23 = tail call noalias ptr @av_malloc(i64 noundef %22) #8
  %24 = getelementptr inbounds nuw i8, ptr %3, i64 16
  store ptr %23, ptr %24, align 8, !tbaa !34
  %.not16 = icmp eq ptr %23, null
  br i1 %.not16, label %25, label %26

25:                                               ; preds = %14
  tail call void (ptr, i32, ptr, ...) @av_log(ptr noundef nonnull %0, i32 noundef 16, ptr noundef nonnull @.str.3) #8
  br label %26

26:                                               ; preds = %14, %12, %25, %11
  %.0 = phi i32 [ -1094995529, %11 ], [ -12, %25 ], [ -12, %12 ], [ 0, %14 ]
  ret i32 %.0
}